target datalayout = "e-m:e-p270:32:32-p271:32:32-p272:64:64-i64:64-i128:128-f80:128-n8:16:32:64-S128"
target triple = "x86_64-pc-linux-gnu"

%struct.tag_ALSA_MIDIDeviceDescription = type { i32, i32, i32, ptr, ptr }

; Function Attrs: nounwind uwtable
define hidden i32 @initMIDIDeviceDescription(ptr noundef %0, i32 noundef %1) #0 {
  %3 = alloca ptr, align 8
  %4 = alloca i32, align 4
  %5 = alloca i32, align 4
  store ptr %0, ptr %3, align 8
  store i32 %1, ptr %4, align 4
  store i32 0, ptr %5, align 4
  %6 = load i32, ptr %4, align 4
  %7 = load ptr, ptr %3, align 8
  %8 = getelementptr inbounds %struct.tag_ALSA_MIDIDeviceDescription, ptr %7, i32 0, i32 0
  store i32 %6, ptr %8, align 8
  %9 = load ptr, ptr %3, align 8
  %10 = getelementptr inbounds %struct.tag_ALSA_MIDIDeviceDescription, ptr %9, i32 0, i32 1
  store i32 200, ptr %10, align 4
  %11 = load ptr, ptr %3, align 8
  %12 = getelementptr inbounds %struct.tag_ALSA_MIDIDeviceDescription, ptr %11, i32 0, i32 1
  %13 = load i32, ptr %12, align 4
  %14 = add nsw i32 %13, 1
  %15 = sext i32 %14 to i64
  %16 = call noalias ptr @calloc(i64 noundef %15, i64 noundef 1) #6
  %17 = load ptr, ptr %3, align 8
  %18 = getelementptr inbounds %struct.tag_ALSA_MIDIDeviceDescription, ptr %17, i32 0, i32 3
  store ptr %16, ptr %18, align 8
  %19 = load ptr, ptr %3, align 8
  %20 = getelementptr inbounds %struct.tag_ALSA_MIDIDeviceDescription, ptr %19, i32 0, i32 1
  %21 = load i32, ptr %20, align 4
  %22 = add nsw i32 %21, 1
  %23 = sext i32 %22 to i64
  %24 = call noalias ptr @calloc(i64 noundef %23, i64 noundef 1) #6
  %25 = load ptr, ptr %3, align 8
  %26 = getelementptr inbounds %struct.tag_ALSA_MIDIDeviceDescription, ptr %25, i32 0, i32 4
  store ptr %24, ptr %26, align 8
  %27 = load ptr, ptr %3, align 8
  %28 = getelementptr inbounds %struct.tag_ALSA_MIDIDeviceDescription, ptr %27, i32 0, i32 3
  %29 = load ptr, ptr %28, align 8
  %30 = icmp ne ptr %29, null
  br i1 %30, label %31, label %36

31:                                               ; preds = %2
  %32 = load ptr, ptr %3, align 8
  %33 = getelementptr inbounds %struct.tag_ALSA_MIDIDeviceDescription, ptr %32, i32 0, i32 4
  %34 = load ptr, ptr %33, align 8
  %35 = icmp ne ptr %34, null
  br i1 %35, label %37, label %36

36:                                               ; preds = %31, %2
  store i32 -11115, ptr %5, align 4
  br label %37

37:                                               ; preds = %36, %31
  %38 = load i32, ptr %5, align 4
  ret i32 %38
}