; Function Attrs: mustprogress nofree nounwind willreturn memory(argmem: write, inaccessiblemem: readwrite) uwtable
define hidden noundef range(i32 -11115, 1) i32 @initMIDIDeviceDescription(ptr nocapture noundef writeonly %0, i32 noundef %1) local_unnamed_addr #2 {
  store i32 %1, ptr %0, align 8
  %3 = getelementptr inbounds i8, ptr %0, i64 4
  store i32 200, ptr %3, align 4
  %4 = tail call noalias dereferenceable_or_null(201) ptr @calloc(i64 noundef 201, i64 noundef 1) #13
  %5 = getelementptr inbounds i8, ptr %0, i64 16
  store ptr %4, ptr %5, align 8
  %6 = tail call noalias dereferenceable_or_null(201) ptr @calloc(i64 noundef 201, i64 noundef 1) #13
  %7 = getelementptr inbounds i8, ptr %0, i64 24
  store ptr %6, ptr %7, align 8
  %.not = icmp eq ptr %4, null
  %.not9 = icmp eq ptr %6, null
  %or.cond = or i1 %.not, %.not9
  %.0 = select i1 %or.cond, i32 -11115, i32 0
  ret i32 %.0
}